target datalayout = "e-m:e-p270:32:32-p271:32:32-p272:64:64-i64:64-i128:128-f80:128-n8:16:32:64-S128"
target triple = "x86_64-pc-linux-gnu"

%struct.AVFilterContext = type { ptr, ptr, ptr, ptr, ptr, i32, ptr, ptr, i32, ptr, ptr, i32, i32, ptr, ptr, ptr, ptr, i32, ptr, i32, i32 }
%struct.MidEqualizerContext = type { ptr, [2 x [4 x i32]], [2 x [4 x i32]], i32, i32, i32, [2 x ptr], ptr, %struct.FFFrameSync, ptr }
%struct.FFFrameSync = type { ptr, ptr, i32, %struct.AVRational, i64, ptr, ptr, i32, i32, i8, i8, ptr, i32, i32, i32, i32 }
%struct.AVRational = type { i32, i32 }
%struct.AVFilterLink = type { ptr, ptr, ptr, ptr, i32, i32, i32, i32, %struct.AVRational, i32, i32, i32, %struct.AVChannelLayout, %struct.AVRational, ptr, i32, %struct.AVFilterFormatsConfig, %struct.AVFilterFormatsConfig }
%struct.AVChannelLayout = type { i32, i32, %union.anon.1, ptr }
%union.anon.1 = type { i64 }
%struct.AVFilterFormatsConfig = type { ptr, ptr, ptr, ptr, ptr }
%struct.FilterLink = type { %struct.AVFilterLink, ptr, i64, i64, i32, i32, i64, i64, i64, i64, %struct.AVRational, ptr }
%struct.FFFrameSyncIn = type { i32, i32, %struct.AVRational, ptr, ptr, i64, i64, i8, i8, i32, i32 }

; Function Attrs: inlinehint nounwind uwtable
define internal ptr @ff_filter_link(ptr noundef %0) #7 {
  %2 = alloca ptr, align 8
  store ptr %0, ptr %2, align 8, !tbaa !24
  %3 = load ptr, ptr %2, align 8, !tbaa !24
  ret ptr %3
}

; Function Attrs: nounwind uwtable
define internal i32 @config_output(ptr noundef %0) #1 {
  %2 = alloca i32, align 4
  %3 = alloca ptr, align 8
  %4 = alloca ptr, align 8
  %5 = alloca ptr, align 8
  %6 = alloca ptr, align 8
  %7 = alloca ptr, align 8
  %8 = alloca ptr, align 8
  %9 = alloca ptr, align 8
  %10 = alloca ptr, align 8
  %11 = alloca i32, align 4
  %12 = alloca i32, align 4
  store ptr %0, ptr %3, align 8, !tbaa !24
  call void @llvm.lifetime.start.p0(i64 8, ptr %4) #10
  %13 = load ptr, ptr %3, align 8, !tbaa !24
  %14 = getelementptr inbounds nuw %struct.AVFilterLink, ptr %13, i32 0, i32 0
  %15 = load ptr, ptr %14, align 8, !tbaa !79
  store ptr %15, ptr %4, align 8, !tbaa !4
  call void @llvm.lifetime.start.p0(i64 8, ptr %5) #10
  %16 = load ptr, ptr %4, align 8, !tbaa !4
  %17 = getelementptr inbounds nuw %struct.AVFilterContext, ptr %16, i32 0, i32 9
  %18 = load ptr, ptr %17, align 8, !tbaa !9
  store ptr %18, ptr %5, align 8, !tbaa !22
  call void @llvm.lifetime.start.p0(i64 8, ptr %6) #10
  %19 = load ptr, ptr %4, align 8, !tbaa !4
  %20 = getelementptr inbounds nuw %struct.AVFilterContext, ptr %19, i32 0, i32 4
  %21 = load ptr, ptr %20, align 8, !tbaa !80
  %22 = getelementptr inbounds ptr, ptr %21, i64 0
  %23 = load ptr, ptr %22, align 8, !tbaa !24
  store ptr %23, ptr %6, align 8, !tbaa !24
  call void @llvm.lifetime.start.p0(i64 8, ptr %7) #10
  %24 = load ptr, ptr %4, align 8, !tbaa !4
  %25 = getelementptr inbounds nuw %struct.AVFilterContext, ptr %24, i32 0, i32 4
  %26 = load ptr, ptr %25, align 8, !tbaa !80
  %27 = getelementptr inbounds ptr, ptr %26, i64 1
  %28 = load ptr, ptr %27, align 8, !tbaa !24
  store ptr %28, ptr %7, align 8, !tbaa !24
  call void @llvm.lifetime.start.p0(i64 8, ptr %8) #10
  %29 = load ptr, ptr %6, align 8, !tbaa !24
  %30 = call ptr @ff_filter_link(ptr noundef %29)
  store ptr %30, ptr %8, align 8, !tbaa !81
  call void @llvm.lifetime.start.p0(i64 8, ptr %9) #10
  %31 = load ptr, ptr %3, align 8, !tbaa !24
  %32 = call ptr @ff_filter_link(ptr noundef %31)
  store ptr %32, ptr %9, align 8, !tbaa !81
  call void @llvm.lifetime.start.p0(i64 8, ptr %10) #10
  call void @llvm.lifetime.start.p0(i64 4, ptr %11) #10
  %33 = load ptr, ptr %6, align 8, !tbaa !24
  %34 = getelementptr inbounds nuw %struct.AVFilterLink, ptr %33, i32 0, i32 6
  %35 = load i32, ptr %34, align 8, !tbaa !48
  %36 = load ptr, ptr %3, align 8, !tbaa !24
  %37 = getelementptr inbounds nuw %struct.AVFilterLink, ptr %36, i32 0, i32 6
  store i32 %35, ptr %37, align 8, !tbaa !48
  %38 = load ptr, ptr %6, align 8, !tbaa !24
  %39 = getelementptr inbounds nuw %struct.AVFilterLink, ptr %38, i32 0, i32 7
  %40 = load i32, ptr %39, align 4, !tbaa !47
  %41 = load ptr, ptr %3, align 8, !tbaa !24
  %42 = getelementptr inbounds nuw %struct.AVFilterLink, ptr %41, i32 0, i32 7
  store i32 %40, ptr %42, align 4, !tbaa !47
  %43 = load ptr, ptr %3, align 8, !tbaa !24
  %44 = getelementptr inbounds nuw %struct.AVFilterLink, ptr %43, i32 0, i32 8
  %45 = load ptr, ptr %6, align 8, !tbaa !24
  %46 = getelementptr inbounds nuw %struct.AVFilterLink, ptr %45, i32 0, i32 8
  call void @llvm.memcpy.p0.p0.i64(ptr align 8 %44, ptr align 8 %46, i64 8, i1 false), !tbaa.struct !83
  %47 = load ptr, ptr %9, align 8, !tbaa !81
  %48 = getelementptr inbounds nuw %struct.FilterLink, ptr %47, i32 0, i32 10
  %49 = load ptr, ptr %8, align 8, !tbaa !81
  %50 = getelementptr inbounds nuw %struct.FilterLink, ptr %49, i32 0, i32 10
  call void @llvm.memcpy.p0.p0.i64(ptr align 8 %48, ptr align 8 %50, i64 8, i1 false), !tbaa.struct !83
  %51 = load ptr, ptr %5, align 8, !tbaa !22
  %52 = getelementptr inbounds nuw %struct.MidEqualizerContext, ptr %51, i32 0, i32 8
  %53 = load ptr, ptr %4, align 8, !tbaa !4
  %54 = call i32 @ff_framesync_init(ptr noundef %52, ptr noundef %53, i32 noundef 2)
  store i32 %54, ptr %11, align 4, !tbaa !45
  %55 = icmp slt i32 %54, 0
  br i1 %55, label %56, label %58

56:                                               ; preds = %1
  %57 = load i32, ptr %11, align 4, !tbaa !45
  store i32 %57, ptr %2, align 4
  store i32 1, ptr %12, align 4
  br label %107

58:                                               ; preds = %1
  %59 = load ptr, ptr %5, align 8, !tbaa !22
  %60 = getelementptr inbounds nuw %struct.MidEqualizerContext, ptr %59, i32 0, i32 8
  %61 = getelementptr inbounds nuw %struct.FFFrameSync, ptr %60, i32 0, i32 11
  %62 = load ptr, ptr %61, align 8, !tbaa !84
  store ptr %62, ptr %10, align 8, !tbaa !85
  %63 = load ptr, ptr %10, align 8, !tbaa !85
  %64 = getelementptr inbounds %struct.FFFrameSyncIn, ptr %63, i64 0
  %65 = getelementptr inbounds nuw %struct.FFFrameSyncIn, ptr %64, i32 0, i32 2
  %66 = load ptr, ptr %6, align 8, !tbaa !24
  %67 = getelementptr inbounds nuw %struct.AVFilterLink, ptr %66, i32 0, i32 13
  call void @llvm.memcpy.p0.p0.i64(ptr align 8 %65, ptr align 8 %67, i64 8, i1 false), !tbaa.struct !83
  %68 = load ptr, ptr %10, align 8, !tbaa !85
  %69 = getelementptr inbounds %struct.FFFrameSyncIn, ptr %68, i64 1
  %70 = getelementptr inbounds nuw %struct.FFFrameSyncIn, ptr %69, i32 0, i32 2
  %71 = load ptr, ptr %7, align 8, !tbaa !24
  %72 = getelementptr inbounds nuw %struct.AVFilterLink, ptr %71, i32 0, i32 13
  call void @llvm.memcpy.p0.p0.i64(ptr align 8 %70, ptr align 8 %72, i64 8, i1 false), !tbaa.struct !83
  %73 = load ptr, ptr %10, align 8, !tbaa !85
  %74 = getelementptr inbounds %struct.FFFrameSyncIn, ptr %73, i64 0
  %75 = getelementptr inbounds nuw %struct.FFFrameSyncIn, ptr %74, i32 0, i32 9
  store i32 1, ptr %75, align 4, !tbaa !86
  %76 = load ptr, ptr %10, align 8, !tbaa !85
  %77 = getelementptr inbounds %struct.FFFrameSyncIn, ptr %76, i64 0
  %78 = getelementptr inbounds nuw %struct.FFFrameSyncIn, ptr %77, i32 0, i32 0
  store i32 0, ptr %78, align 8, !tbaa !89
  %79 = load ptr, ptr %10, align 8, !tbaa !85
  %80 = getelementptr inbounds %struct.FFFrameSyncIn, ptr %79, i64 0
  %81 = getelementptr inbounds nuw %struct.FFFrameSyncIn, ptr %80, i32 0, i32 1
  store i32 2, ptr %81, align 4, !tbaa !90
  %82 = load ptr, ptr %10, align 8, !tbaa !85
  %83 = getelementptr inbounds %struct.FFFrameSyncIn, ptr %82, i64 1
  %84 = getelementptr inbounds nuw %struct.FFFrameSyncIn, ptr %83, i32 0, i32 9
  store i32 1, ptr %84, align 4, !tbaa !86
  %85 = load ptr, ptr %10, align 8, !tbaa !85
  %86 = getelementptr inbounds %struct.FFFrameSyncIn, ptr %85, i64 1
  %87 = getelementptr inbounds nuw %struct.FFFrameSyncIn, ptr %86, i32 0, i32 0
  store i32 0, ptr %87, align 8, !tbaa !89
  %88 = load ptr, ptr %10, align 8, !tbaa !85
  %89 = getelementptr inbounds %struct.FFFrameSyncIn, ptr %88, i64 1
  %90 = getelementptr inbounds nuw %struct.FFFrameSyncIn, ptr %89, i32 0, i32 1
  store i32 2, ptr %90, align 4, !tbaa !90
  %91 = load ptr, ptr %5, align 8, !tbaa !22
  %92 = load ptr, ptr %5, align 8, !tbaa !22
  %93 = getelementptr inbounds nuw %struct.MidEqualizerContext, ptr %92, i32 0, i32 8
  %94 = getelementptr inbounds nuw %struct.FFFrameSync, ptr %93, i32 0, i32 6
  store ptr %91, ptr %94, align 8, !tbaa !91
  %95 = load ptr, ptr %5, align 8, !tbaa !22
  %96 = getelementptr inbounds nuw %struct.MidEqualizerContext, ptr %95, i32 0, i32 8
  %97 = getelementptr inbounds nuw %struct.FFFrameSync, ptr %96, i32 0, i32 5
  store ptr @process_frame, ptr %97, align 8, !tbaa !92
  %98 = load ptr, ptr %5, align 8, !tbaa !22
  %99 = getelementptr inbounds nuw %struct.MidEqualizerContext, ptr %98, i32 0, i32 8
  %100 = call i32 @ff_framesync_configure(ptr noundef %99)
  store i32 %100, ptr %11, align 4, !tbaa !45
  %101 = load ptr, ptr %3, align 8, !tbaa !24
  %102 = getelementptr inbounds nuw %struct.AVFilterLink, ptr %101, i32 0, i32 13
  %103 = load ptr, ptr %5, align 8, !tbaa !22
  %104 = getelementptr inbounds nuw %struct.MidEqualizerContext, ptr %103, i32 0, i32 8
  %105 = getelementptr inbounds nuw %struct.FFFrameSync, ptr %104, i32 0, i32 3
  call void @llvm.memcpy.p0.p0.i64(ptr align 8 %102, ptr align 4 %105, i64 8, i1 false), !tbaa.struct !83
  %106 = load i32, ptr %11, align 4, !tbaa !45
  store i32 %106, ptr %2, align 4
  store i32 1, ptr %12, align 4
  br label %107

107:                                              ; preds = %58, %56
  call void @llvm.lifetime.end.p0(i64 4, ptr %11) #10
  call void @llvm.lifetime.end.p0(i64 8, ptr %10) #10
  call void @llvm.lifetime.end.p0(i64 8, ptr %9) #10
  call void @llvm.lifetime.end.p0(i64 8, ptr %8) #10
  call void @llvm.lifetime.end.p0(i64 8, ptr %7) #10
  call void @llvm.lifetime.end.p0(i64 8, ptr %6) #10
  call void @llvm.lifetime.end.p0(i64 8, ptr %5) #10
  call void @llvm.lifetime.end.p0(i64 8, ptr %4) #10
  %108 = load i32, ptr %2, align 4
  ret i32 %108
}