; Function Attrs: nounwind uwtable
define internal i32 @config_output(ptr noundef captures(none) initializes((40, 56), (264, 272)) %0) #1 {
  %2 = load ptr, ptr %0, align 8, !tbaa !67
  %3 = getelementptr inbounds nuw i8, ptr %2, i64 72
  %4 = load ptr, ptr %3, align 8, !tbaa !4
  %5 = getelementptr inbounds nuw i8, ptr %2, i64 32
  %6 = load ptr, ptr %5, align 8, !tbaa !68
  %7 = load ptr, ptr %6, align 8, !tbaa !69
  %8 = getelementptr inbounds nuw i8, ptr %6, i64 8
  %9 = load ptr, ptr %8, align 8, !tbaa !69
  %10 = getelementptr inbounds nuw i8, ptr %7, i64 40
  %11 = load i32, ptr %10, align 8, !tbaa !41
  %12 = getelementptr inbounds nuw i8, ptr %0, i64 40
  store i32 %11, ptr %12, align 8, !tbaa !41
  %13 = getelementptr inbounds nuw i8, ptr %7, i64 44
  %14 = load i32, ptr %13, align 4, !tbaa !39
  %15 = getelementptr inbounds nuw i8, ptr %0, i64 44
  store i32 %14, ptr %15, align 4, !tbaa !39
  %16 = getelementptr inbounds nuw i8, ptr %0, i64 48
  %17 = getelementptr inbounds nuw i8, ptr %7, i64 48
  %18 = load i64, ptr %17, align 8
  store i64 %18, ptr %16, align 8
  %19 = getelementptr inbounds nuw i8, ptr %0, i64 264
  %20 = getelementptr inbounds nuw i8, ptr %7, i64 264
  %21 = load i64, ptr %20, align 8
  store i64 %21, ptr %19, align 8
  %22 = getelementptr inbounds nuw i8, ptr %4, i64 112
  %23 = tail call i32 @ff_framesync_init(ptr noundef nonnull %22, ptr noundef %2, i32 noundef 2) #7
  %24 = icmp slt i32 %23, 0
  br i1 %24, label %45, label %25

25:                                               ; preds = %1
  %26 = getelementptr inbounds nuw i8, ptr %4, i64 184
  %27 = load ptr, ptr %26, align 8, !tbaa !71
  %28 = getelementptr inbounds nuw i8, ptr %27, i64 8
  %29 = getelementptr inbounds nuw i8, ptr %7, i64 96
  %30 = load i64, ptr %29, align 8
  store i64 %30, ptr %28, align 8
  %31 = getelementptr inbounds nuw i8, ptr %27, i64 64
  %32 = getelementptr inbounds nuw i8, ptr %27, i64 72
  %33 = getelementptr inbounds nuw i8, ptr %9, i64 96
  %34 = load i64, ptr %33, align 8
  store i64 %34, ptr %32, align 8
  %35 = getelementptr inbounds nuw i8, ptr %27, i64 52
  store i32 1, ptr %35, align 4, !tbaa !72
  store i32 0, ptr %27, align 8, !tbaa !75
  %36 = getelementptr inbounds nuw i8, ptr %27, i64 4
  store i32 2, ptr %36, align 4, !tbaa !76
  %37 = getelementptr inbounds nuw i8, ptr %27, i64 116
  store i32 1, ptr %37, align 4, !tbaa !72
  store i32 0, ptr %31, align 8, !tbaa !75
  %38 = getelementptr inbounds nuw i8, ptr %27, i64 68
  store i32 2, ptr %38, align 4, !tbaa !76
  %39 = getelementptr inbounds nuw i8, ptr %4, i64 160
  store ptr %4, ptr %39, align 8, !tbaa !77
  %40 = getelementptr inbounds nuw i8, ptr %4, i64 152
  store ptr @process_frame, ptr %40, align 8, !tbaa !78
  %41 = tail call i32 @ff_framesync_configure(ptr noundef nonnull %22) #7
  %42 = getelementptr inbounds nuw i8, ptr %0, i64 96
  %43 = getelementptr inbounds nuw i8, ptr %4, i64 132
  %44 = load i64, ptr %43, align 4
  store i64 %44, ptr %42, align 8
  br label %45

45:                                               ; preds = %1, %25
  %.0 = phi i32 [ %41, %25 ], [ %23, %1 ]
  ret i32 %.0
}